target datalayout = "e-m:e-p270:32:32-p271:32:32-p272:64:64-i64:64-i128:128-f80:128-n8:16:32:64-S128"
target triple = "x86_64-pc-linux-gnu"

%struct.SDL_HIDAPI_RumbleContext = type { %struct.SDL_AtomicInt, %struct.SDL_AtomicInt, ptr, ptr, ptr, ptr }
%struct.SDL_AtomicInt = type { i32 }
%struct.SDL_HIDAPI_RumbleRequest = type { ptr, [128 x i8], i32, ptr, ptr, ptr }

@rumble_context = internal global %struct.SDL_HIDAPI_RumbleContext zeroinitializer, align 8

; Function Attrs: nounwind uwtable
define hidden zeroext i1 @SDL_HIDAPI_GetPendingRumbleLocked(ptr noundef %0, ptr noundef %1, ptr noundef %2, ptr noundef %3) #0 {
  %5 = alloca i1, align 1
  %6 = alloca ptr, align 8
  %7 = alloca ptr, align 8
  %8 = alloca ptr, align 8
  %9 = alloca ptr, align 8
  %10 = alloca ptr, align 8
  %11 = alloca ptr, align 8
  %12 = alloca ptr, align 8
  %13 = alloca i32, align 4
  store ptr %0, ptr %6, align 8
  store ptr %1, ptr %7, align 8
  store ptr %2, ptr %8, align 8
  store ptr %3, ptr %9, align 8
  call void @llvm.lifetime.start.p0(i64 8, ptr %10) #5
  store ptr @rumble_context, ptr %10, align 8
  call void @llvm.lifetime.start.p0(i64 8, ptr %11) #5
  call void @llvm.lifetime.start.p0(i64 8, ptr %12) #5
  store ptr null, ptr %12, align 8
  %14 = load ptr, ptr %10, align 8
  %15 = getelementptr inbounds nuw %struct.SDL_HIDAPI_RumbleContext, ptr %14, i32 0, i32 5
  %16 = load ptr, ptr %15, align 8
  store ptr %16, ptr %11, align 8
  br label %17

17:                                               ; preds = %29, %4
  %18 = load ptr, ptr %11, align 8
  %19 = icmp ne ptr %18, null
  br i1 %19, label %20, label %33

20:                                               ; preds = %17
  %21 = load ptr, ptr %11, align 8
  %22 = getelementptr inbounds nuw %struct.SDL_HIDAPI_RumbleRequest, ptr %21, i32 0, i32 0
  %23 = load ptr, ptr %22, align 8
  %24 = load ptr, ptr %6, align 8
  %25 = icmp eq ptr %23, %24
  br i1 %25, label %26, label %28

26:                                               ; preds = %20
  %27 = load ptr, ptr %11, align 8
  store ptr %27, ptr %12, align 8
  br label %28

28:                                               ; preds = %26, %20
  br label %29

29:                                               ; preds = %28
  %30 = load ptr, ptr %11, align 8
  %31 = getelementptr inbounds nuw %struct.SDL_HIDAPI_RumbleRequest, ptr %30, i32 0, i32 5
  %32 = load ptr, ptr %31, align 8
  store ptr %32, ptr %11, align 8
  br label %17, !llvm.loop !3

33:                                               ; preds = %17
  %34 = load ptr, ptr %12, align 8
  %35 = icmp ne ptr %34, null
  br i1 %35, label %36, label %45

36:                                               ; preds = %33
  %37 = load ptr, ptr %12, align 8
  %38 = getelementptr inbounds nuw %struct.SDL_HIDAPI_RumbleRequest, ptr %37, i32 0, i32 1
  %39 = getelementptr inbounds [128 x i8], ptr %38, i64 0, i64 0
  %40 = load ptr, ptr %7, align 8
  store ptr %39, ptr %40, align 8
  %41 = load ptr, ptr %12, align 8
  %42 = getelementptr inbounds nuw %struct.SDL_HIDAPI_RumbleRequest, ptr %41, i32 0, i32 2
  %43 = load ptr, ptr %8, align 8
  store ptr %42, ptr %43, align 8
  %44 = load ptr, ptr %9, align 8
  store i32 128, ptr %44, align 4
  store i1 true, ptr %5, align 1
  store i32 1, ptr %13, align 4
  br label %46

45:                                               ; preds = %33
  store i1 false, ptr %5, align 1
  store i32 1, ptr %13, align 4
  br label %46

46:                                               ; preds = %45, %36
  call void @llvm.lifetime.end.p0(i64 8, ptr %12) #5
  call void @llvm.lifetime.end.p0(i64 8, ptr %11) #5
  call void @llvm.lifetime.end.p0(i64 8, ptr %10) #5
  %47 = load i1, ptr %5, align 1
  ret i1 %47
}