; Function Attrs: nofree norecurse nosync nounwind memory(read, argmem: readwrite, inaccessiblemem: none) uwtable
define hidden noundef zeroext i1 @SDL_HIDAPI_GetPendingRumbleLocked(ptr noundef readnone captures(address) %0, ptr noundef writeonly captures(none) %1, ptr noundef writeonly captures(none) %2, ptr noundef writeonly captures(none) %3) local_unnamed_addr #3 {
  %.01316 = load ptr, ptr getelementptr inbounds nuw (i8, ptr @rumble_context, i64 32), align 8
  %.not17 = icmp eq ptr %.01316, null
  br i1 %.not17, label %._crit_edge.thread, label %.lr.ph

.lr.ph:                                           ; preds = %4, %.lr.ph
  %.01319 = phi ptr [ %.013, %.lr.ph ], [ %.01316, %4 ]
  %.018 = phi ptr [ %spec.select, %.lr.ph ], [ null, %4 ]
  %5 = load ptr, ptr %.01319, align 8
  %6 = icmp eq ptr %5, %0
  %spec.select = select i1 %6, ptr %.01319, ptr %.018
  %7 = getelementptr inbounds nuw i8, ptr %.01319, i64 160
  %.013 = load ptr, ptr %7, align 8
  %.not = icmp eq ptr %.013, null
  br i1 %.not, label %._crit_edge, label %.lr.ph, !llvm.loop !3

._crit_edge:                                      ; preds = %.lr.ph
  %.not15.not = icmp eq ptr %spec.select, null
  br i1 %.not15.not, label %._crit_edge.thread, label %8

8:                                                ; preds = %._crit_edge
  %9 = getelementptr inbounds nuw i8, ptr %spec.select, i64 8
  store ptr %9, ptr %1, align 8
  %10 = getelementptr inbounds nuw i8, ptr %spec.select, i64 136
  store ptr %10, ptr %2, align 8
  store i32 128, ptr %3, align 4
  br label %._crit_edge.thread

._crit_edge.thread:                               ; preds = %4, %._crit_edge, %8
  %.not1522 = phi i1 [ false, %._crit_edge ], [ true, %8 ], [ false, %4 ]
  ret i1 %.not1522
}